target datalayout = "e-m:e-p270:32:32-p271:32:32-p272:64:64-i64:64-i128:128-f80:128-n8:16:32:64-S128"
target triple = "x86_64-unknown-linux-gnu"

%"struct.absl::lts_20230802::container_internal::internal_compressed_tuple::Storage" = type { %"class.absl::lts_20230802::container_internal::CommonFields" }
%"class.absl::lts_20230802::container_internal::CommonFields" = type { ptr, ptr, i64, %"class.absl::lts_20230802::container_internal::CompressedTuple.4" }
%"class.absl::lts_20230802::container_internal::CompressedTuple.4" = type { %"struct.absl::lts_20230802::container_internal::internal_compressed_tuple::CompressedTupleImpl.5" }
%"struct.absl::lts_20230802::container_internal::internal_compressed_tuple::CompressedTupleImpl.5" = type { %"struct.absl::lts_20230802::container_internal::internal_compressed_tuple::Storage.6" }
%"struct.absl::lts_20230802::container_internal::internal_compressed_tuple::Storage.6" = type { i64 }
%"class.std::__cxx11::basic_string" = type { %"struct.std::__cxx11::basic_string<char>::_Alloc_hider", i64, %union.anon.90 }
%"struct.std::__cxx11::basic_string<char>::_Alloc_hider" = type { ptr }
%union.anon.90 = type { i64, [8 x i8] }
%"class.google::protobuf::TextFormat::Printer" = type { i32, i8, i8, i8, i8, i8, i8, i32, i8, i8, i8, i64, %"class.std::unique_ptr.294", %"class.absl::lts_20230802::flat_hash_map.302", %"class.absl::lts_20230802::flat_hash_map.311", ptr }
%"class.std::unique_ptr.294" = type { %"struct.std::__uniq_ptr_data.295" }
%"struct.std::__uniq_ptr_data.295" = type { %"class.std::__uniq_ptr_impl.296" }
%"class.std::__uniq_ptr_impl.296" = type { %"class.std::tuple.297" }
%"class.std::tuple.297" = type { %"struct.std::_Tuple_impl.298" }
%"struct.std::_Tuple_impl.298" = type { %"struct.std::_Head_base.301" }
%"struct.std::_Head_base.301" = type { ptr }
%"class.absl::lts_20230802::flat_hash_map.302" = type { %"class.absl::lts_20230802::container_internal::raw_hash_map.303" }
%"class.absl::lts_20230802::container_internal::raw_hash_map.303" = type { %"class.absl::lts_20230802::container_internal::raw_hash_set.304" }
%"class.absl::lts_20230802::container_internal::raw_hash_set.304" = type { %"class.absl::lts_20230802::container_internal::CompressedTuple.305" }
%"class.absl::lts_20230802::container_internal::CompressedTuple.305" = type { %"struct.absl::lts_20230802::container_internal::internal_compressed_tuple::CompressedTupleImpl.306" }
%"struct.absl::lts_20230802::container_internal::internal_compressed_tuple::CompressedTupleImpl.306" = type { %"struct.absl::lts_20230802::container_internal::internal_compressed_tuple::Storage" }
%"class.absl::lts_20230802::flat_hash_map.311" = type { %"class.absl::lts_20230802::container_internal::raw_hash_map.312" }
%"class.absl::lts_20230802::container_internal::raw_hash_map.312" = type { %"class.absl::lts_20230802::container_internal::raw_hash_set.313" }
%"class.absl::lts_20230802::container_internal::raw_hash_set.313" = type { %"class.absl::lts_20230802::container_internal::CompressedTuple.314" }
%"class.absl::lts_20230802::container_internal::CompressedTuple.314" = type { %"struct.absl::lts_20230802::container_internal::internal_compressed_tuple::CompressedTupleImpl.315" }
%"struct.absl::lts_20230802::container_internal::internal_compressed_tuple::CompressedTupleImpl.315" = type { %"struct.absl::lts_20230802::container_internal::internal_compressed_tuple::Storage" }

; Function Attrs: mustprogress nounwind uwtable
define linkonce_odr hidden void @_ZN6google8protobuf10TextFormat7Printer12SetExpandAnyEb(ptr noundef nonnull align 8 dereferenceable(112) %this, i1 noundef zeroext %expand) #5 comdat align 2 {
entry:
  %this.addr = alloca ptr, align 8
  %expand.addr = alloca i8, align 1
  store ptr %this, ptr %this.addr, align 8
  %frombool = zext i1 %expand to i8
  store i8 %frombool, ptr %expand.addr, align 1
  %this1 = load ptr, ptr %this.addr, align 8
  %0 = load i8, ptr %expand.addr, align 1
  %tobool = trunc i8 %0 to i1
  %expand_any_ = getelementptr inbounds %"class.google::protobuf::TextFormat::Printer", ptr %this1, i32 0, i32 10
  %frombool2 = zext i1 %tobool to i8
  store i8 %frombool2, ptr %expand_any_, align 2
  ret void
}

; Function Attrs: mustprogress nounwind uwtable
define linkonce_odr hidden void @_ZN6google8protobuf10TextFormat7Printer17SetSingleLineModeEb(ptr noundef nonnull align 8 dereferenceable(112) %this, i1 noundef zeroext %single_line_mode) #5 comdat align 2 {
entry:
  %this.addr = alloca ptr, align 8
  %single_line_mode.addr = alloca i8, align 1
  store ptr %this, ptr %this.addr, align 8
  %frombool = zext i1 %single_line_mode to i8
  store i8 %frombool, ptr %single_line_mode.addr, align 1
  %this1 = load ptr, ptr %this.addr, align 8
  %0 = load i8, ptr %single_line_mode.addr, align 1
  %tobool = trunc i8 %0 to i1
  %single_line_mode_ = getelementptr inbounds %"class.google::protobuf::TextFormat::Printer", ptr %this1, i32 0, i32 1
  %frombool2 = zext i1 %tobool to i8
  store i8 %frombool2, ptr %single_line_mode_, align 4
  ret void
}

; Function Attrs: mustprogress uwtable
define internal void @_ZN6google8protobuf4util12_GLOBAL__N_120PrintShortTextFormatB5cxx11ERKNS0_7MessageE(ptr noalias sret(%"class.std::__cxx11::basic_string") align 8 %agg.result, ptr noundef nonnull align 8 dereferenceable(16) %message) #4 personality ptr @__gxx_personality_v0 {
entry:
  %result.ptr = alloca ptr, align 8
  %message.addr = alloca ptr, align 8
  %nrvo = alloca i1, align 1
  %printer = alloca %"class.google::protobuf::TextFormat::Printer", align 8
  %exn.slot = alloca ptr, align 8
  %ehselector.slot = alloca i32, align 4
  store ptr %agg.result, ptr %result.ptr, align 8
  store ptr %message, ptr %message.addr, align 8
  store i1 false, ptr %nrvo, align 1
  call void @_ZNSt7__cxx1112basic_stringIcSt11char_traitsIcESaIcEEC1Ev(ptr noundef nonnull align 8 dereferenceable(32) %agg.result) #3
  invoke void @_ZN6google8protobuf10TextFormat7PrinterC1Ev(ptr noundef nonnull align 8 dereferenceable(112) %printer)
          to label %invoke.cont unwind label %lpad

invoke.cont:                                      ; preds = %entry
  invoke void @_ZN6google8protobuf10TextFormat7Printer17SetSingleLineModeEb(ptr noundef nonnull align 8 dereferenceable(112) %printer, i1 noundef zeroext true)
          to label %invoke.cont2 unwind label %lpad1

invoke.cont2:                                     ; preds = %invoke.cont
  invoke void @_ZN6google8protobuf10TextFormat7Printer12SetExpandAnyEb(ptr noundef nonnull align 8 dereferenceable(112) %printer, i1 noundef zeroext true)
          to label %invoke.cont3 unwind label %lpad1

invoke.cont3:                                     ; preds = %invoke.cont2
  %0 = load ptr, ptr %message.addr, align 8
  %call = invoke noundef zeroext i1 @_ZNK6google8protobuf10TextFormat7Printer13PrintToStringERKNS0_7MessageEPNSt7__cxx1112basic_stringIcSt11char_traitsIcESaIcEEE(ptr noundef nonnull align 8 dereferenceable(112) %printer, ptr noundef nonnull align 8 dereferenceable(16) %0, ptr noundef %agg.result)
          to label %invoke.cont4 unwind label %lpad1

invoke.cont4:                                     ; preds = %invoke.cont3
  %call5 = call noundef zeroext i1 @_ZNKSt7__cxx1112basic_stringIcSt11char_traitsIcESaIcEE5emptyEv(ptr noundef nonnull align 8 dereferenceable(32) %agg.result) #3
  br i1 %call5, label %if.end, label %land.lhs.true

land.lhs.true:                                    ; preds = %invoke.cont4
  %call6 = call noundef i64 @_ZNKSt7__cxx1112basic_stringIcSt11char_traitsIcESaIcEE4sizeEv(ptr noundef nonnull align 8 dereferenceable(32) %agg.result) #3
  %sub = sub i64 %call6, 1
  %call8 = invoke noundef nonnull align 1 dereferenceable(1) ptr @_ZNSt7__cxx1112basic_stringIcSt11char_traitsIcESaIcEEixEm(ptr noundef nonnull align 8 dereferenceable(32) %agg.result, i64 noundef %sub)
          to label %invoke.cont7 unwind label %lpad1

invoke.cont7:                                     ; preds = %land.lhs.true
  %1 = load i8, ptr %call8, align 1
  %conv = sext i8 %1 to i32
  %cmp = icmp eq i32 %conv, 32
  br i1 %cmp, label %if.then, label %if.end

if.then:                                          ; preds = %invoke.cont7
  %call9 = call noundef i64 @_ZNKSt7__cxx1112basic_stringIcSt11char_traitsIcESaIcEE4sizeEv(ptr noundef nonnull align 8 dereferenceable(32) %agg.result) #3
  %sub10 = sub i64 %call9, 1
  invoke void @_ZNSt7__cxx1112basic_stringIcSt11char_traitsIcESaIcEE6resizeEm(ptr noundef nonnull align 8 dereferenceable(32) %agg.result, i64 noundef %sub10)
          to label %invoke.cont11 unwind label %lpad1

invoke.cont11:                                    ; preds = %if.then
  br label %if.end

lpad:                                             ; preds = %entry
  %2 = landingpad { ptr, i32 }
          cleanup
  %3 = extractvalue { ptr, i32 } %2, 0
  store ptr %3, ptr %exn.slot, align 8
  %4 = extractvalue { ptr, i32 } %2, 1
  store i32 %4, ptr %ehselector.slot, align 4
  br label %ehcleanup

lpad1:                                            ; preds = %if.then, %land.lhs.true, %invoke.cont3, %invoke.cont2, %invoke.cont
  %5 = landingpad { ptr, i32 }
          cleanup
  %6 = extractvalue { ptr, i32 } %5, 0
  store ptr %6, ptr %exn.slot, align 8
  %7 = extractvalue { ptr, i32 } %5, 1
  store i32 %7, ptr %ehselector.slot, align 4
  call void @_ZN6google8protobuf10TextFormat7PrinterD2Ev(ptr noundef nonnull align 8 dereferenceable(112) %printer) #3
  br label %ehcleanup

if.end:                                           ; preds = %invoke.cont11, %invoke.cont7, %invoke.cont4
  store i1 true, ptr %nrvo, align 1
  call void @_ZN6google8protobuf10TextFormat7PrinterD2Ev(ptr noundef nonnull align 8 dereferenceable(112) %printer) #3
  %nrvo.val = load i1, ptr %nrvo, align 1
  br i1 %nrvo.val, label %nrvo.skipdtor, label %nrvo.unused

nrvo.unused:                                      ; preds = %if.end
  call void @_ZNSt7__cxx1112basic_stringIcSt11char_traitsIcESaIcEED1Ev(ptr noundef nonnull align 8 dereferenceable(32) %agg.result) #3
  br label %nrvo.skipdtor

nrvo.skipdtor:                                    ; preds = %nrvo.unused, %if.end
  ret void

ehcleanup:                                        ; preds = %lpad1, %lpad
  call void @_ZNSt7__cxx1112basic_stringIcSt11char_traitsIcESaIcEED1Ev(ptr noundef nonnull align 8 dereferenceable(32) %agg.result) #3
  br label %eh.resume

eh.resume:                                        ; preds = %ehcleanup
  %exn = load ptr, ptr %exn.slot, align 8
  %sel = load i32, ptr %ehselector.slot, align 4
  %lpad.val = insertvalue { ptr, i32 } poison, ptr %exn, 0
  %lpad.val12 = insertvalue { ptr, i32 } %lpad.val, i32 %sel, 1
  resume { ptr, i32 } %lpad.val12
}