; Function Attrs: mustprogress uwtable
define internal fastcc void @_ZN6google8protobuf4util12_GLOBAL__N_120PrintShortTextFormatB5cxx11ERKNS0_7MessageE(ptr noalias nonnull align 8 %agg.result, ptr noundef nonnull align 8 dereferenceable(16) %message) unnamed_addr #3 personality ptr @__gxx_personality_v0 {
entry:
  %printer = alloca %"class.google::protobuf::TextFormat::Printer", align 8
  tail call void @_ZNSt7__cxx1112basic_stringIcSt11char_traitsIcESaIcEEC1Ev(ptr noundef nonnull align 8 dereferenceable(32) %agg.result) #34
  invoke void @_ZN6google8protobuf10TextFormat7PrinterC1Ev(ptr noundef nonnull align 8 dereferenceable(112) %printer)
          to label %invoke.cont unwind label %lpad

invoke.cont:                                      ; preds = %entry
  %single_line_mode_.i = getelementptr inbounds i8, ptr %printer, i64 4
  store i8 1, ptr %single_line_mode_.i, align 4
  %expand_any_.i = getelementptr inbounds i8, ptr %printer, i64 18
  store i8 1, ptr %expand_any_.i, align 2
  %call = invoke noundef zeroext i1 @_ZNK6google8protobuf10TextFormat7Printer13PrintToStringERKNS0_7MessageEPNSt7__cxx1112basic_stringIcSt11char_traitsIcESaIcEEE(ptr noundef nonnull align 8 dereferenceable(112) %printer, ptr noundef nonnull align 8 dereferenceable(16) %message, ptr noundef nonnull %agg.result)
          to label %invoke.cont4 unwind label %lpad1

invoke.cont4:                                     ; preds = %invoke.cont
  %call5 = call noundef zeroext i1 @_ZNKSt7__cxx1112basic_stringIcSt11char_traitsIcESaIcEE5emptyEv(ptr noundef nonnull align 8 dereferenceable(32) %agg.result) #34
  br i1 %call5, label %if.end, label %land.lhs.true

land.lhs.true:                                    ; preds = %invoke.cont4
  %call6 = call noundef i64 @_ZNKSt7__cxx1112basic_stringIcSt11char_traitsIcESaIcEE4sizeEv(ptr noundef nonnull align 8 dereferenceable(32) %agg.result) #34
  %sub = add i64 %call6, -1
  %call8 = invoke noundef nonnull align 1 dereferenceable(1) ptr @_ZNSt7__cxx1112basic_stringIcSt11char_traitsIcESaIcEEixEm(ptr noundef nonnull align 8 dereferenceable(32) %agg.result, i64 noundef %sub)
          to label %invoke.cont7 unwind label %lpad1

invoke.cont7:                                     ; preds = %land.lhs.true
  %0 = load i8, ptr %call8, align 1
  %cmp = icmp eq i8 %0, 32
  br i1 %cmp, label %if.then, label %if.end

if.then:                                          ; preds = %invoke.cont7
  %call9 = call noundef i64 @_ZNKSt7__cxx1112basic_stringIcSt11char_traitsIcESaIcEE4sizeEv(ptr noundef nonnull align 8 dereferenceable(32) %agg.result) #34
  %sub10 = add i64 %call9, -1
  invoke void @_ZNSt7__cxx1112basic_stringIcSt11char_traitsIcESaIcEE6resizeEm(ptr noundef nonnull align 8 dereferenceable(32) %agg.result, i64 noundef %sub10)
          to label %if.end unwind label %lpad1

lpad:                                             ; preds = %entry
  %1 = landingpad { ptr, i32 }
          cleanup
  br label %ehcleanup

lpad1:                                            ; preds = %if.then, %land.lhs.true, %invoke.cont
  %2 = landingpad { ptr, i32 }
          cleanup
  call void @_ZN6google8protobuf10TextFormat7PrinterD2Ev(ptr noundef nonnull align 8 dereferenceable(112) %printer) #34
  br label %ehcleanup

if.end:                                           ; preds = %if.then, %invoke.cont7, %invoke.cont4
  %custom_message_printers_.i = getelementptr inbounds i8, ptr %printer, i64 72
  %capacity_.i.i.i.i.i.i = getelementptr inbounds i8, ptr %printer, i64 88
  %3 = load i64, ptr %capacity_.i.i.i.i.i.i, align 8
  %tobool.not.i.i.i.i = icmp eq i64 %3, 0
  br i1 %tobool.not.i.i.i.i, label %_ZN4absl12lts_2023080213flat_hash_mapIPKN6google8protobuf10DescriptorESt10unique_ptrIKNS3_10TextFormat14MessagePrinterESt14default_deleteISA_EENS0_18container_internal6HashEqIS6_vE4HashENSG_2EqESaISt4pairIKS6_SD_EEED2Ev.exit.i, label %if.end.i.i.i.i

if.end.i.i.i.i:                                   ; preds = %if.end
  %4 = load ptr, ptr %custom_message_printers_.i, align 8
  %slots_.i.i.i.i.i.i.i = getelementptr inbounds i8, ptr %printer, i64 80
  %5 = load ptr, ptr %slots_.i.i.i.i.i.i.i, align 8
  br label %for.body.i.i.i.i.i

for.body.i.i.i.i.i:                               ; preds = %for.inc.i.i.i.i.i, %if.end.i.i.i.i
  %i.05.i.i.i.i.i = phi i64 [ %inc.i.i.i.i.i, %for.inc.i.i.i.i.i ], [ 0, %if.end.i.i.i.i ]
  %arrayidx.i.i.i.i.i = getelementptr inbounds i8, ptr %4, i64 %i.05.i.i.i.i.i
  %6 = load i8, ptr %arrayidx.i.i.i.i.i, align 1
  %cmp.i.i.i.i.i.i = icmp sgt i8 %6, -1
  br i1 %cmp.i.i.i.i.i.i, label %if.then.i.i.i.i.i, label %for.inc.i.i.i.i.i

if.then.i.i.i.i.i:                                ; preds = %for.body.i.i.i.i.i
  %second.i.i.i.i.i.i.i.i.i.i.i = getelementptr inbounds %"union.absl::lts_20230802::container_internal::map_slot_type.320", ptr %5, i64 %i.05.i.i.i.i.i, i32 0, i32 1
  %7 = load ptr, ptr %second.i.i.i.i.i.i.i.i.i.i.i, align 8
  %cmp.not.i.i.i.i.i.i.i.i.i.i.i.i = icmp eq ptr %7, null
  br i1 %cmp.not.i.i.i.i.i.i.i.i.i.i.i.i, label %_ZN4absl12lts_2023080218container_internal20common_policy_traitsINS1_17FlatHashMapPolicyIPKN6google8protobuf10DescriptorESt10unique_ptrIKNS5_10TextFormat14MessagePrinterESt14default_deleteISC_EEEEvE7destroyISaISt4pairIKS8_SF_EEEEvPT_PNS1_13map_slot_typeIS8_SF_EE.exit.i.i.i.i.i, label %_ZNKSt14default_deleteIKN6google8protobuf10TextFormat14MessagePrinterEEclEPS4_.exit.i.i.i.i.i.i.i.i.i.i.i.i

_ZNKSt14default_deleteIKN6google8protobuf10TextFormat14MessagePrinterEEclEPS4_.exit.i.i.i.i.i.i.i.i.i.i.i.i: ; preds = %if.then.i.i.i.i.i
  %vtable.i.i.i.i.i.i.i.i.i.i.i.i.i = load ptr, ptr %7, align 8
  %vfn.i.i.i.i.i.i.i.i.i.i.i.i.i = getelementptr inbounds i8, ptr %vtable.i.i.i.i.i.i.i.i.i.i.i.i.i, i64 8
  %8 = load ptr, ptr %vfn.i.i.i.i.i.i.i.i.i.i.i.i.i, align 8
  call void %8(ptr noundef nonnull align 8 dereferenceable(8) %7) #34
  br label %_ZN4absl12lts_2023080218container_internal20common_policy_traitsINS1_17FlatHashMapPolicyIPKN6google8protobuf10DescriptorESt10unique_ptrIKNS5_10TextFormat14MessagePrinterESt14default_deleteISC_EEEEvE7destroyISaISt4pairIKS8_SF_EEEEvPT_PNS1_13map_slot_typeIS8_SF_EE.exit.i.i.i.i.i

_ZN4absl12lts_2023080218container_internal20common_policy_traitsINS1_17FlatHashMapPolicyIPKN6google8protobuf10DescriptorESt10unique_ptrIKNS5_10TextFormat14MessagePrinterESt14default_deleteISC_EEEEvE7destroyISaISt4pairIKS8_SF_EEEEvPT_PNS1_13map_slot_typeIS8_SF_EE.exit.i.i.i.i.i: ; preds = %_ZNKSt14default_deleteIKN6google8protobuf10TextFormat14MessagePrinterEEclEPS4_.exit.i.i.i.i.i.i.i.i.i.i.i.i, %if.then.i.i.i.i.i
  store ptr null, ptr %second.i.i.i.i.i.i.i.i.i.i.i, align 8
  br label %for.inc.i.i.i.i.i

for.inc.i.i.i.i.i:                                ; preds = %_ZN4absl12lts_2023080218container_internal20common_policy_traitsINS1_17FlatHashMapPolicyIPKN6google8protobuf10DescriptorESt10unique_ptrIKNS5_10TextFormat14MessagePrinterESt14default_deleteISC_EEEEvE7destroyISaISt4pairIKS8_SF_EEEEvPT_PNS1_13map_slot_typeIS8_SF_EE.exit.i.i.i.i.i, %for.body.i.i.i.i.i
  %inc.i.i.i.i.i = add nuw i64 %i.05.i.i.i.i.i, 1
  %cmp.not.i.i.i.i.i = icmp eq i64 %inc.i.i.i.i.i, %3
  br i1 %cmp.not.i.i.i.i.i, label %invoke.cont13.i.i.i.i, label %for.body.i.i.i.i.i, !llvm.loop !296

invoke.cont13.i.i.i.i:                            ; preds = %for.inc.i.i.i.i.i
  %9 = load ptr, ptr %custom_message_printers_.i, align 8
  %add.ptr.i.i.i.i.i = getelementptr inbounds i8, ptr %9, i64 -8
  call void @_ZdlPv(ptr noundef nonnull %add.ptr.i.i.i.i.i) #33
  br label %_ZN4absl12lts_2023080213flat_hash_mapIPKN6google8protobuf10DescriptorESt10unique_ptrIKNS3_10TextFormat14MessagePrinterESt14default_deleteISA_EENS0_18container_internal6HashEqIS6_vE4HashENSG_2EqESaISt4pairIKS6_SD_EEED2Ev.exit.i

_ZN4absl12lts_2023080213flat_hash_mapIPKN6google8protobuf10DescriptorESt10unique_ptrIKNS3_10TextFormat14MessagePrinterESt14default_deleteISA_EENS0_18container_internal6HashEqIS6_vE4HashENSG_2EqESaISt4pairIKS6_SD_EEED2Ev.exit.i: ; preds = %invoke.cont13.i.i.i.i, %if.end
  %custom_printers_.i = getelementptr inbounds i8, ptr %printer, i64 40
  %capacity_.i.i.i.i.i1.i = getelementptr inbounds i8, ptr %printer, i64 56
  %10 = load i64, ptr %capacity_.i.i.i.i.i1.i, align 8
  %tobool.not.i.i.i2.i = icmp eq i64 %10, 0
  br i1 %tobool.not.i.i.i2.i, label %_ZN4absl12lts_2023080213flat_hash_mapIPKN6google8protobuf15FieldDescriptorESt10unique_ptrIKNS3_10TextFormat21FastFieldValuePrinterESt14default_deleteISA_EENS0_18container_internal6HashEqIS6_vE4HashENSG_2EqESaISt4pairIKS6_SD_EEED2Ev.exit.i, label %if.end.i.i.i3.i

if.end.i.i.i3.i:                                  ; preds = %_ZN4absl12lts_2023080213flat_hash_mapIPKN6google8protobuf10DescriptorESt10unique_ptrIKNS3_10TextFormat14MessagePrinterESt14default_deleteISA_EENS0_18container_internal6HashEqIS6_vE4HashENSG_2EqESaISt4pairIKS6_SD_EEED2Ev.exit.i
  %11 = load ptr, ptr %custom_printers_.i, align 8
  %slots_.i.i.i.i.i.i4.i = getelementptr inbounds i8, ptr %printer, i64 48
  %12 = load ptr, ptr %slots_.i.i.i.i.i.i4.i, align 8
  br label %for.body.i.i.i.i5.i

for.body.i.i.i.i5.i:                              ; preds = %for.inc.i.i.i.i9.i, %if.end.i.i.i3.i
  %i.05.i.i.i.i6.i = phi i64 [ %inc.i.i.i.i10.i, %for.inc.i.i.i.i9.i ], [ 0, %if.end.i.i.i3.i ]
  %arrayidx.i.i.i.i7.i = getelementptr inbounds i8, ptr %11, i64 %i.05.i.i.i.i6.i
  %13 = load i8, ptr %arrayidx.i.i.i.i7.i, align 1
  %cmp.i.i.i.i.i8.i = icmp sgt i8 %13, -1
  br i1 %cmp.i.i.i.i.i8.i, label %if.then.i.i.i.i14.i, label %for.inc.i.i.i.i9.i

if.then.i.i.i.i14.i:                              ; preds = %for.body.i.i.i.i5.i
  %second.i.i.i.i.i.i.i.i.i.i15.i = getelementptr inbounds %"union.absl::lts_20230802::container_internal::map_slot_type.335", ptr %12, i64 %i.05.i.i.i.i6.i, i32 0, i32 1
  %14 = load ptr, ptr %second.i.i.i.i.i.i.i.i.i.i15.i, align 8
  %cmp.not.i.i.i.i.i.i.i.i.i.i.i16.i = icmp eq ptr %14, null
  br i1 %cmp.not.i.i.i.i.i.i.i.i.i.i.i16.i, label %_ZN4absl12lts_2023080218container_internal20common_policy_traitsINS1_17FlatHashMapPolicyIPKN6google8protobuf15FieldDescriptorESt10unique_ptrIKNS5_10TextFormat21FastFieldValuePrinterESt14default_deleteISC_EEEEvE7destroyISaISt4pairIKS8_SF_EEEEvPT_PNS1_13map_slot_typeIS8_SF_EE.exit.i.i.i.i.i, label %_ZNKSt14default_deleteIKN6google8protobuf10TextFormat21FastFieldValuePrinterEEclEPS4_.exit.i.i.i.i.i.i.i.i.i.i.i.i

_ZNKSt14default_deleteIKN6google8protobuf10TextFormat21FastFieldValuePrinterEEclEPS4_.exit.i.i.i.i.i.i.i.i.i.i.i.i: ; preds = %if.then.i.i.i.i14.i
  %vtable.i.i.i.i.i.i.i.i.i.i.i.i17.i = load ptr, ptr %14, align 8
  %vfn.i.i.i.i.i.i.i.i.i.i.i.i18.i = getelementptr inbounds i8, ptr %vtable.i.i.i.i.i.i.i.i.i.i.i.i17.i, i64 8
  %15 = load ptr, ptr %vfn.i.i.i.i.i.i.i.i.i.i.i.i18.i, align 8
  call void %15(ptr noundef nonnull align 8 dereferenceable(8) %14) #34
  br label %_ZN4absl12lts_2023080218container_internal20common_policy_traitsINS1_17FlatHashMapPolicyIPKN6google8protobuf15FieldDescriptorESt10unique_ptrIKNS5_10TextFormat21FastFieldValuePrinterESt14default_deleteISC_EEEEvE7destroyISaISt4pairIKS8_SF_EEEEvPT_PNS1_13map_slot_typeIS8_SF_EE.exit.i.i.i.i.i

_ZN4absl12lts_2023080218container_internal20common_policy_traitsINS1_17FlatHashMapPolicyIPKN6google8protobuf15FieldDescriptorESt10unique_ptrIKNS5_10TextFormat21FastFieldValuePrinterESt14default_deleteISC_EEEEvE7destroyISaISt4pairIKS8_SF_EEEEvPT_PNS1_13map_slot_typeIS8_SF_EE.exit.i.i.i.i.i: ; preds = %_ZNKSt14default_deleteIKN6google8protobuf10TextFormat21FastFieldValuePrinterEEclEPS4_.exit.i.i.i.i.i.i.i.i.i.i.i.i, %if.then.i.i.i.i14.i
  store ptr null, ptr %second.i.i.i.i.i.i.i.i.i.i15.i, align 8
  br label %for.inc.i.i.i.i9.i

for.inc.i.i.i.i9.i:                               ; preds = %_ZN4absl12lts_2023080218container_internal20common_policy_traitsINS1_17FlatHashMapPolicyIPKN6google8protobuf15FieldDescriptorESt10unique_ptrIKNS5_10TextFormat21FastFieldValuePrinterESt14default_deleteISC_EEEEvE7destroyISaISt4pairIKS8_SF_EEEEvPT_PNS1_13map_slot_typeIS8_SF_EE.exit.i.i.i.i.i, %for.body.i.i.i.i5.i
  %inc.i.i.i.i10.i = add nuw i64 %i.05.i.i.i.i6.i, 1
  %cmp.not.i.i.i.i11.i = icmp eq i64 %inc.i.i.i.i10.i, %10
  br i1 %cmp.not.i.i.i.i11.i, label %invoke.cont13.i.i.i12.i, label %for.body.i.i.i.i5.i, !llvm.loop !297

invoke.cont13.i.i.i12.i:                          ; preds = %for.inc.i.i.i.i9.i
  %16 = load ptr, ptr %custom_printers_.i, align 8
  %add.ptr.i.i.i.i13.i = getelementptr inbounds i8, ptr %16, i64 -8
  call void @_ZdlPv(ptr noundef nonnull %add.ptr.i.i.i.i13.i) #33
  br label %_ZN4absl12lts_2023080213flat_hash_mapIPKN6google8protobuf15FieldDescriptorESt10unique_ptrIKNS3_10TextFormat21FastFieldValuePrinterESt14default_deleteISA_EENS0_18container_internal6HashEqIS6_vE4HashENSG_2EqESaISt4pairIKS6_SD_EEED2Ev.exit.i

_ZN4absl12lts_2023080213flat_hash_mapIPKN6google8protobuf15FieldDescriptorESt10unique_ptrIKNS3_10TextFormat21FastFieldValuePrinterESt14default_deleteISA_EENS0_18container_internal6HashEqIS6_vE4HashENSG_2EqESaISt4pairIKS6_SD_EEED2Ev.exit.i: ; preds = %invoke.cont13.i.i.i12.i, %_ZN4absl12lts_2023080213flat_hash_mapIPKN6google8protobuf10DescriptorESt10unique_ptrIKNS3_10TextFormat14MessagePrinterESt14default_deleteISA_EENS0_18container_internal6HashEqIS6_vE4HashENSG_2EqESaISt4pairIKS6_SD_EEED2Ev.exit.i
  %default_field_value_printer_.i = getelementptr inbounds i8, ptr %printer, i64 32
  %17 = load ptr, ptr %default_field_value_printer_.i, align 8
  %cmp.not.i.i = icmp eq ptr %17, null
  br i1 %cmp.not.i.i, label %_ZN6google8protobuf10TextFormat7PrinterD2Ev.exit, label %_ZNKSt14default_deleteIKN6google8protobuf10TextFormat21FastFieldValuePrinterEEclEPS4_.exit.i.i

_ZNKSt14default_deleteIKN6google8protobuf10TextFormat21FastFieldValuePrinterEEclEPS4_.exit.i.i: ; preds = %_ZN4absl12lts_2023080213flat_hash_mapIPKN6google8protobuf15FieldDescriptorESt10unique_ptrIKNS3_10TextFormat21FastFieldValuePrinterESt14default_deleteISA_EENS0_18container_internal6HashEqIS6_vE4HashENSG_2EqESaISt4pairIKS6_SD_EEED2Ev.exit.i
  %vtable.i.i.i = load ptr, ptr %17, align 8
  %vfn.i.i.i = getelementptr inbounds i8, ptr %vtable.i.i.i, i64 8
  %18 = load ptr, ptr %vfn.i.i.i, align 8
  call void %18(ptr noundef nonnull align 8 dereferenceable(8) %17) #34
  br label %_ZN6google8protobuf10TextFormat7PrinterD2Ev.exit

_ZN6google8protobuf10TextFormat7PrinterD2Ev.exit: ; preds = %_ZN4absl12lts_2023080213flat_hash_mapIPKN6google8protobuf15FieldDescriptorESt10unique_ptrIKNS3_10TextFormat21FastFieldValuePrinterESt14default_deleteISA_EENS0_18container_internal6HashEqIS6_vE4HashENSG_2EqESaISt4pairIKS6_SD_EEED2Ev.exit.i, %_ZNKSt14default_deleteIKN6google8protobuf10TextFormat21FastFieldValuePrinterEEclEPS4_.exit.i.i
  ret void

ehcleanup:                                        ; preds = %lpad1, %lpad
  %.pn = phi { ptr, i32 } [ %2, %lpad1 ], [ %1, %lpad ]
  call void @_ZNSt7__cxx1112basic_stringIcSt11char_traitsIcESaIcEED1Ev(ptr noundef nonnull align 8 dereferenceable(32) %agg.result) #34
  resume { ptr, i32 } %.pn
}